(i__main__
LogFile
p0
(dp1
S'_installed_files'
p2
(dp3
S'../../Database/DatabaseSvc/DatabaseSvc'
p4
(dp5
S'../../../Database/DatabaseSvc/DatabaseSvc/IQuery.h'
p6
S'../../../InstallArea/include/DatabaseSvc/IQuery.h'
p7
sS'../../../Database/DatabaseSvc/DatabaseSvc/IDatabaseSvc.h'
p8
S'../../../InstallArea/include/DatabaseSvc/IDatabaseSvc.h'
p9
sssb.